(dp0
VServer
p1
Vcmsweb.cern.ch
p2
sVPort
p3
V
p4
sVRequestName
p5
V250521_142131:psajdak_crab_hhhhhh2
p6
sVvoRole
p7
VNULL
p8
sVvoGroup
p9
g4
sVinstance
p10
Vprod
p11
sVOriginalConfig
p12
ccopy_reg
_reconstructor
p13
(cWMCore.Configuration
Configuration
p14
c__builtin__
object
p15
Ntp16
Rp17
(dp18
V_internal_sections
p19
(lp20
VGeneral
p21
aVData
p22
aVJobType
p23
aVSite
p24
asg21
g13
(cWMCore.Configuration
ConfigSection
p25
g15
Ntp26
Rp27
(dp28
V_internal_documentation
p29
g4
sV_internal_name
p30
g21
sV_internal_settings
p31
c__builtin__
set
p32
((lp33
VworkArea
p34
aVtransferOutputs
p35
aVtransferLogs
p36
aVrequestName
p37
atp38
Rp39
sV_internal_docstrings
p40
(dp41
sV_internal_children
p42
g32
((lp43
tp44
Rp45
sV_internal_parent_ref
p46
NsV_internal_skipChecks
p47
I00
sg34
Vqqq3
p48
sg37
Vhhhhhh2
p49
sg36
I01
sg35
I01
sbsg22
g13
(g25
g15
Ntp50
Rp51
(dp52
g29
g4
sg30
g22
sg31
g32
((lp53
VtotalUnits
p54
aVuseParent
p55
aVinputDBS
p56
aVinputDataset
p57
aVunitsPerJob
p58
aVlumiMask
p59
aVsplitting
p60
aVoutLFNDirBase
p61
aVoutputDatasetTag
p62
atp63
Rp64
sg40
(dp65
sg42
g32
((lp66
tp67
Rp68
sg46
Nsg47
I00
sg57
V/ParkingDoubleMuonLowMass0/Run2024F-PromptReco-v1/MINIAOD
p69
sg59
V2024F_Golden.json
p70
sg55
I00
sg56
Vglobal
p71
sg60
VLumiBased
p72
sg58
I100
sg54
I-1
sg61
V/store/user/psajdak/crab_out/
p73
sg62
Vqq3
p74
sbsg23
g13
(g25
g15
Ntp75
Rp76
(dp77
g29
g4
sg30
g23
sg31
g32
((lp78
VoutputFiles
p79
aVpsetName
p80
aVpluginName
p81
atp82
Rp83
sg40
(dp84
sg42
g32
((lp85
tp86
Rp87
sg46
Nsg47
I00
sg81
VAnalysis
p88
sg80
Vanalysis_cwPS.py
p89
sg79
(lp90
VXX_B0s_test.root
p91
asbsg24
g13
(g25
g15
Ntp92
Rp93
(dp94
g29
g4
sg30
g24
sg31
g32
((lp95
VstorageSite
p96
atp97
Rp98
sg40
(dp99
sg42
g32
((lp100
tp101
Rp102
sg46
Nsg47
I00
sg96
VT3_CH_CERNBOX
p103
sbsbs.